target datalayout = "e-m:e-p270:32:32-p271:32:32-p272:64:64-i64:64-i128:128-f80:128-n8:16:32:64-S128"
target triple = "x86_64-pc-linux-gnu"

%struct.MOVMuxCencContext = type { ptr, ptr, i64, i64, i32, i32, i16, i64, ptr, i64, ptr, i32, i32, ptr, %struct.CodedBitstreamFragment }
%struct.CodedBitstreamFragment = type { ptr, i64, i64, ptr, i32, i32, ptr }

; Function Attrs: nounwind uwtable
define void @ff_mov_cenc_free(ptr noundef %0) #0 {
  %2 = alloca ptr, align 8
  store ptr %0, ptr %2, align 8, !tbaa !4
  %3 = load ptr, ptr %2, align 8, !tbaa !4
  %4 = getelementptr inbounds nuw %struct.MOVMuxCencContext, ptr %3, i32 0, i32 0
  %5 = load ptr, ptr %4, align 8, !tbaa !14
  call void @av_aes_ctr_free(ptr noundef %5)
  %6 = load ptr, ptr %2, align 8, !tbaa !4
  %7 = getelementptr inbounds nuw %struct.MOVMuxCencContext, ptr %6, i32 0, i32 1
  call void @av_freep(ptr noundef %7)
  %8 = load ptr, ptr %2, align 8, !tbaa !4
  %9 = getelementptr inbounds nuw %struct.MOVMuxCencContext, ptr %8, i32 0, i32 8
  call void @av_freep(ptr noundef %9)
  %10 = load ptr, ptr %2, align 8, !tbaa !4
  %11 = getelementptr inbounds nuw %struct.MOVMuxCencContext, ptr %10, i32 0, i32 10
  call void @av_freep(ptr noundef %11)
  %12 = load ptr, ptr %2, align 8, !tbaa !4
  %13 = getelementptr inbounds nuw %struct.MOVMuxCencContext, ptr %12, i32 0, i32 14
  call void @ff_lavf_cbs_fragment_free(ptr noundef %13)
  %14 = load ptr, ptr %2, align 8, !tbaa !4
  %15 = getelementptr inbounds nuw %struct.MOVMuxCencContext, ptr %14, i32 0, i32 13
  call void @ff_lavf_cbs_close(ptr noundef %15)
  ret void
}