; Function Attrs: nounwind uwtable
define void @ff_mov_cenc_free(ptr noundef %0) local_unnamed_addr #0 {
  %2 = load ptr, ptr %0, align 8, !tbaa !24
  tail call void @av_aes_ctr_free(ptr noundef %2) #5
  %3 = getelementptr inbounds nuw i8, ptr %0, i64 8
  tail call void @av_freep(ptr noundef nonnull %3) #5
  %4 = getelementptr inbounds nuw i8, ptr %0, i64 56
  tail call void @av_freep(ptr noundef nonnull %4) #5
  %5 = getelementptr inbounds nuw i8, ptr %0, i64 72
  tail call void @av_freep(ptr noundef nonnull %5) #5
  %6 = getelementptr inbounds nuw i8, ptr %0, i64 96
  tail call void @ff_lavf_cbs_fragment_free(ptr noundef nonnull %6) #5
  %7 = getelementptr inbounds nuw i8, ptr %0, i64 88
  tail call void @ff_lavf_cbs_close(ptr noundef nonnull %7) #5
  ret void
}